target datalayout = "e-m:e-p270:32:32-p271:32:32-p272:64:64-i64:64-i128:128-f80:128-n8:16:32:64-S128"
target triple = "x86_64-pc-linux-gnu"

; Function Attrs: nounwind uwtable
define hidden i32 @timelib_valid_time(i64 noundef %0, i64 noundef %1, i64 noundef %2) #0 {
  %4 = alloca i32, align 4
  %5 = alloca i64, align 8
  %6 = alloca i64, align 8
  %7 = alloca i64, align 8
  store i64 %0, ptr %5, align 8, !tbaa !4
  store i64 %1, ptr %6, align 8, !tbaa !4
  store i64 %2, ptr %7, align 8, !tbaa !4
  %8 = load i64, ptr %5, align 8, !tbaa !4
  %9 = icmp slt i64 %8, 0
  br i1 %9, label %25, label %10

10:                                               ; preds = %3
  %11 = load i64, ptr %5, align 8, !tbaa !4
  %12 = icmp sgt i64 %11, 23
  br i1 %12, label %25, label %13

13:                                               ; preds = %10
  %14 = load i64, ptr %6, align 8, !tbaa !4
  %15 = icmp slt i64 %14, 0
  br i1 %15, label %25, label %16

16:                                               ; preds = %13
  %17 = load i64, ptr %6, align 8, !tbaa !4
  %18 = icmp sgt i64 %17, 59
  br i1 %18, label %25, label %19

19:                                               ; preds = %16
  %20 = load i64, ptr %7, align 8, !tbaa !4
  %21 = icmp slt i64 %20, 0
  br i1 %21, label %25, label %22

22:                                               ; preds = %19
  %23 = load i64, ptr %7, align 8, !tbaa !4
  %24 = icmp sgt i64 %23, 59
  br i1 %24, label %25, label %26

25:                                               ; preds = %22, %19, %16, %13, %10, %3
  store i32 0, ptr %4, align 4
  br label %27

26:                                               ; preds = %22
  store i32 1, ptr %4, align 4
  br label %27

27:                                               ; preds = %26, %25
  %28 = load i32, ptr %4, align 4
  ret i32 %28
}